target datalayout = "e-m:e-p270:32:32-p271:32:32-p272:64:64-i64:64-i128:128-f80:128-n8:16:32:64-S128"
target triple = "x86_64-pc-linux-gnu"

; Function Attrs: nounwind uwtable
define internal i32 @_sort_iter_compare_func_int(ptr noundef %0, ptr noundef %1, ptr noundef %2, ptr noundef %3) #0 {
  %5 = alloca ptr, align 8
  %6 = alloca ptr, align 8
  %7 = alloca ptr, align 8
  %8 = alloca ptr, align 8
  %9 = alloca i32, align 4
  %10 = alloca i32, align 4
  %11 = alloca i32, align 4
  %12 = alloca i32, align 4
  store ptr %0, ptr %5, align 8
  store ptr %1, ptr %6, align 8
  store ptr %2, ptr %7, align 8
  store ptr %3, ptr %8, align 8
  call void @llvm.lifetime.start.p0(i64 4, ptr %9) #11
  %13 = load ptr, ptr %8, align 8
  %14 = ptrtoint ptr %13 to i64
  %15 = trunc i64 %14 to i32
  store i32 %15, ptr %9, align 4
  call void @llvm.lifetime.start.p0(i64 4, ptr %10) #11
  store i32 0, ptr %10, align 4
  call void @llvm.lifetime.start.p0(i64 4, ptr %11) #11
  call void @llvm.lifetime.start.p0(i64 4, ptr %12) #11
  %16 = load ptr, ptr %5, align 8
  %17 = load ptr, ptr %6, align 8
  %18 = load i32, ptr %9, align 4
  call void (ptr, ptr, ...) @gtk_tree_model_get(ptr noundef %16, ptr noundef %17, i32 noundef %18, ptr noundef %11, i32 noundef -1)
  %19 = load ptr, ptr %5, align 8
  %20 = load ptr, ptr %7, align 8
  %21 = load i32, ptr %9, align 4
  call void (ptr, ptr, ...) @gtk_tree_model_get(ptr noundef %19, ptr noundef %20, i32 noundef %21, ptr noundef %12, i32 noundef -1)
  %22 = load i32, ptr %11, align 4
  %23 = load i32, ptr %12, align 4
  %24 = icmp ne i32 %22, %23
  br i1 %24, label %25, label %30

25:                                               ; preds = %4
  %26 = load i32, ptr %11, align 4
  %27 = load i32, ptr %12, align 4
  %28 = icmp sgt i32 %26, %27
  %29 = select i1 %28, i32 1, i32 -1
  store i32 %29, ptr %10, align 4
  br label %30

30:                                               ; preds = %25, %4
  %31 = load i32, ptr %10, align 4
  call void @llvm.lifetime.end.p0(i64 4, ptr %12) #11
  call void @llvm.lifetime.end.p0(i64 4, ptr %11) #11
  call void @llvm.lifetime.end.p0(i64 4, ptr %10) #11
  call void @llvm.lifetime.end.p0(i64 4, ptr %9) #11
  ret i32 %31
}