; Function Attrs: nounwind uwtable
define internal range(i32 -1, 2) i32 @_sort_iter_compare_func_int(ptr noundef %0, ptr noundef %1, ptr noundef %2, ptr noundef %3) #2 {
  %5 = alloca i32, align 4
  %6 = alloca i32, align 4
  %7 = ptrtoint ptr %3 to i64
  %8 = trunc i64 %7 to i32
  call void @llvm.lifetime.start.p0(i64 4, ptr nonnull %5) #16
  call void @llvm.lifetime.start.p0(i64 4, ptr nonnull %6) #16
  call void (ptr, ptr, ...) @gtk_tree_model_get(ptr noundef %0, ptr noundef %1, i32 noundef %8, ptr noundef nonnull %5, i32 noundef -1) #16
  call void (ptr, ptr, ...) @gtk_tree_model_get(ptr noundef %0, ptr noundef %2, i32 noundef %8, ptr noundef nonnull %6, i32 noundef -1) #16
  %9 = load i32, ptr %5, align 4
  %10 = load i32, ptr %6, align 4
  %.0 = call i32 @llvm.scmp.i32.i32(i32 %9, i32 %10)
  call void @llvm.lifetime.end.p0(i64 4, ptr nonnull %6) #16
  call void @llvm.lifetime.end.p0(i64 4, ptr nonnull %5) #16
  ret i32 %.0
}